target datalayout = "e-m:e-p270:32:32-p271:32:32-p272:64:64-i64:64-i128:128-f80:128-n8:16:32:64-S128"
target triple = "x86_64-pc-linux-gnu"

%"class.std::__cxx11::basic_string" = type { %"struct.std::__cxx11::basic_string<char>::_Alloc_hider", i64, %union.anon }
%"struct.std::__cxx11::basic_string<char>::_Alloc_hider" = type { ptr }
%union.anon = type { i64, [8 x i8] }
%"struct.faiss::IndexSplitVectors" = type { %"struct.faiss::Index.base", i8, i8, %"class.std::vector", i64 }
%"struct.faiss::Index.base" = type <{ ptr, i32, [4 x i8], i64, i8, i8, [2 x i8], i32, float }>
%"class.std::vector" = type { %"struct.std::_Vector_base" }
%"struct.std::_Vector_base" = type { %"struct.std::_Vector_base<faiss::Index *, std::allocator<faiss::Index *>>::_Vector_impl" }
%"struct.std::_Vector_base<faiss::Index *, std::allocator<faiss::Index *>>::_Vector_impl" = type { %"struct.std::_Vector_base<faiss::Index *, std::allocator<faiss::Index *>>::_Vector_impl_data" }
%"struct.std::_Vector_base<faiss::Index *, std::allocator<faiss::Index *>>::_Vector_impl_data" = type { ptr, ptr, ptr }
%"struct.faiss::Index" = type <{ ptr, i32, [4 x i8], i64, i8, i8, [2 x i8], i32, float, [4 x i8] }>
%"class.__gnu_cxx::__normal_iterator.3" = type { ptr }

@.str.1 = private unnamed_addr constant [19 x i8] c"Error: '%s' failed\00", align 1
@.str.2 = private unnamed_addr constant [34 x i8] c"metric_type == index->metric_type\00", align 1
@__PRETTY_FUNCTION__._ZN5faiss17IndexSplitVectors21sync_with_sub_indexesEv = private unnamed_addr constant [55 x i8] c"void faiss::IndexSplitVectors::sync_with_sub_indexes()\00", align 1
@.str.3 = private unnamed_addr constant [111 x i8] c"generated/home/dtcxzyw/WorkSpace/Projects/compilers/llvm-opt-benchmark/bench/faiss/faiss/faiss/MetaIndexes.cpp\00", align 1
@_ZTIN5faiss14FaissExceptionE = external constant ptr
@.str.4 = private unnamed_addr constant [24 x i8] c"ntotal == index->ntotal\00", align 1

; Function Attrs: mustprogress nounwind uwtable
define linkonce_odr noundef nonnull align 8 dereferenceable(8) ptr @_ZNK9__gnu_cxx17__normal_iteratorIPKPN5faiss5IndexESt6vectorIS3_SaIS3_EEE4baseEv(ptr noundef nonnull align 8 dereferenceable(8) %0) #0 comdat align 2 {
  %2 = alloca ptr, align 8
  store ptr %0, ptr %2, align 8
  %3 = load ptr, ptr %2, align 8
  %4 = getelementptr inbounds %"class.__gnu_cxx::__normal_iterator.3", ptr %3, i32 0, i32 0
  ret ptr %4
}

; Function Attrs: mustprogress nounwind uwtable
define linkonce_odr void @_ZN9__gnu_cxx17__normal_iteratorIPKPN5faiss5IndexESt6vectorIS3_SaIS3_EEEC2ERKS5_(ptr noundef nonnull align 8 dereferenceable(8) %0, ptr noundef nonnull align 8 dereferenceable(8) %1) unnamed_addr #0 comdat align 2 {
  %3 = alloca ptr, align 8
  %4 = alloca ptr, align 8
  store ptr %0, ptr %3, align 8
  store ptr %1, ptr %4, align 8
  %5 = load ptr, ptr %3, align 8
  %6 = getelementptr inbounds %"class.__gnu_cxx::__normal_iterator.3", ptr %5, i32 0, i32 0
  %7 = load ptr, ptr %4, align 8
  %8 = load ptr, ptr %7, align 8
  store ptr %8, ptr %6, align 8
  ret void
}

; Function Attrs: mustprogress nounwind uwtable
define linkonce_odr noundef zeroext i1 @_ZN9__gnu_cxxeqIPKPN5faiss5IndexESt6vectorIS3_SaIS3_EEEEbRKNS_17__normal_iteratorIT_T0_EESE_(ptr noundef nonnull align 8 dereferenceable(8) %0, ptr noundef nonnull align 8 dereferenceable(8) %1) #0 comdat {
  %3 = alloca ptr, align 8
  %4 = alloca ptr, align 8
  store ptr %0, ptr %3, align 8
  store ptr %1, ptr %4, align 8
  %5 = load ptr, ptr %3, align 8
  %6 = call noundef nonnull align 8 dereferenceable(8) ptr @_ZNK9__gnu_cxx17__normal_iteratorIPKPN5faiss5IndexESt6vectorIS3_SaIS3_EEE4baseEv(ptr noundef nonnull align 8 dereferenceable(8) %5) #5
  %7 = load ptr, ptr %6, align 8
  %8 = load ptr, ptr %4, align 8
  %9 = call noundef nonnull align 8 dereferenceable(8) ptr @_ZNK9__gnu_cxx17__normal_iteratorIPKPN5faiss5IndexESt6vectorIS3_SaIS3_EEE4baseEv(ptr noundef nonnull align 8 dereferenceable(8) %8) #5
  %10 = load ptr, ptr %9, align 8
  %11 = icmp eq ptr %7, %10
  ret i1 %11
}

; Function Attrs: mustprogress nounwind uwtable
define linkonce_odr ptr @_ZNKSt6vectorIPN5faiss5IndexESaIS2_EE3endEv(ptr noundef nonnull align 8 dereferenceable(24) %0) #0 comdat align 2 {
  %2 = alloca %"class.__gnu_cxx::__normal_iterator.3", align 8
  %3 = alloca ptr, align 8
  store ptr %0, ptr %3, align 8
  %4 = load ptr, ptr %3, align 8
  %5 = getelementptr inbounds %"struct.std::_Vector_base", ptr %4, i32 0, i32 0
  %6 = getelementptr inbounds %"struct.std::_Vector_base<faiss::Index *, std::allocator<faiss::Index *>>::_Vector_impl_data", ptr %5, i32 0, i32 1
  call void @_ZN9__gnu_cxx17__normal_iteratorIPKPN5faiss5IndexESt6vectorIS3_SaIS3_EEEC2ERKS5_(ptr noundef nonnull align 8 dereferenceable(8) %2, ptr noundef nonnull align 8 dereferenceable(8) %6) #5
  %7 = getelementptr inbounds %"class.__gnu_cxx::__normal_iterator.3", ptr %2, i32 0, i32 0
  %8 = load ptr, ptr %7, align 8
  ret ptr %8
}

; Function Attrs: mustprogress nounwind uwtable
define linkonce_odr ptr @_ZNKSt6vectorIPN5faiss5IndexESaIS2_EE5beginEv(ptr noundef nonnull align 8 dereferenceable(24) %0) #0 comdat align 2 {
  %2 = alloca %"class.__gnu_cxx::__normal_iterator.3", align 8
  %3 = alloca ptr, align 8
  store ptr %0, ptr %3, align 8
  %4 = load ptr, ptr %3, align 8
  %5 = getelementptr inbounds %"struct.std::_Vector_base", ptr %4, i32 0, i32 0
  %6 = getelementptr inbounds %"struct.std::_Vector_base<faiss::Index *, std::allocator<faiss::Index *>>::_Vector_impl_data", ptr %5, i32 0, i32 0
  call void @_ZN9__gnu_cxx17__normal_iteratorIPKPN5faiss5IndexESt6vectorIS3_SaIS3_EEEC2ERKS5_(ptr noundef nonnull align 8 dereferenceable(8) %2, ptr noundef nonnull align 8 dereferenceable(8) %6) #5
  %7 = getelementptr inbounds %"class.__gnu_cxx::__normal_iterator.3", ptr %2, i32 0, i32 0
  %8 = load ptr, ptr %7, align 8
  ret ptr %8
}

; Function Attrs: mustprogress nounwind uwtable
define linkonce_odr noundef i64 @_ZNKSt6vectorIPN5faiss5IndexESaIS2_EE4sizeEv(ptr noundef nonnull align 8 dereferenceable(24) %0) #0 comdat align 2 {
  %2 = alloca ptr, align 8
  store ptr %0, ptr %2, align 8
  %3 = load ptr, ptr %2, align 8
  %4 = getelementptr inbounds %"struct.std::_Vector_base", ptr %3, i32 0, i32 0
  %5 = getelementptr inbounds %"struct.std::_Vector_base<faiss::Index *, std::allocator<faiss::Index *>>::_Vector_impl_data", ptr %4, i32 0, i32 1
  %6 = load ptr, ptr %5, align 8
  %7 = getelementptr inbounds %"struct.std::_Vector_base", ptr %3, i32 0, i32 0
  %8 = getelementptr inbounds %"struct.std::_Vector_base<faiss::Index *, std::allocator<faiss::Index *>>::_Vector_impl_data", ptr %7, i32 0, i32 0
  %9 = load ptr, ptr %8, align 8
  %10 = ptrtoint ptr %6 to i64
  %11 = ptrtoint ptr %9 to i64
  %12 = sub i64 %10, %11
  %13 = sdiv exact i64 %12, 8
  ret i64 %13
}

; Function Attrs: mustprogress nounwind uwtable
define linkonce_odr noundef nonnull align 8 dereferenceable(8) ptr @_ZNSt6vectorIPN5faiss5IndexESaIS2_EEixEm(ptr noundef nonnull align 8 dereferenceable(24) %0, i64 noundef %1) #0 comdat align 2 {
  %3 = alloca ptr, align 8
  %4 = alloca i64, align 8
  store ptr %0, ptr %3, align 8
  store i64 %1, ptr %4, align 8
  %5 = load ptr, ptr %3, align 8
  %6 = getelementptr inbounds %"struct.std::_Vector_base", ptr %5, i32 0, i32 0
  %7 = getelementptr inbounds %"struct.std::_Vector_base<faiss::Index *, std::allocator<faiss::Index *>>::_Vector_impl_data", ptr %6, i32 0, i32 0
  %8 = load ptr, ptr %7, align 8
  %9 = load i64, ptr %4, align 8
  %10 = getelementptr inbounds ptr, ptr %8, i64 %9
  ret ptr %10
}

; Function Attrs: mustprogress nounwind uwtable
define linkonce_odr noundef zeroext i1 @_ZNKSt6vectorIPN5faiss5IndexESaIS2_EE5emptyEv(ptr noundef nonnull align 8 dereferenceable(24) %0) #0 comdat align 2 {
  %2 = alloca ptr, align 8
  %3 = alloca %"class.__gnu_cxx::__normal_iterator.3", align 8
  %4 = alloca %"class.__gnu_cxx::__normal_iterator.3", align 8
  store ptr %0, ptr %2, align 8
  %5 = load ptr, ptr %2, align 8
  %6 = call ptr @_ZNKSt6vectorIPN5faiss5IndexESaIS2_EE5beginEv(ptr noundef nonnull align 8 dereferenceable(24) %5) #5
  %7 = getelementptr inbounds %"class.__gnu_cxx::__normal_iterator.3", ptr %3, i32 0, i32 0
  store ptr %6, ptr %7, align 8
  %8 = call ptr @_ZNKSt6vectorIPN5faiss5IndexESaIS2_EE3endEv(ptr noundef nonnull align 8 dereferenceable(24) %5) #5
  %9 = getelementptr inbounds %"class.__gnu_cxx::__normal_iterator.3", ptr %4, i32 0, i32 0
  store ptr %8, ptr %9, align 8
  %10 = call noundef zeroext i1 @_ZN9__gnu_cxxeqIPKPN5faiss5IndexESt6vectorIS3_SaIS3_EEEEbRKNS_17__normal_iteratorIT_T0_EESE_(ptr noundef nonnull align 8 dereferenceable(8) %3, ptr noundef nonnull align 8 dereferenceable(8) %4) #5
  ret i1 %10
}

; Function Attrs: mustprogress uwtable
define void @_ZN5faiss17IndexSplitVectors21sync_with_sub_indexesEv(ptr noundef nonnull align 8 dereferenceable(72) %0) #1 align 2 personality ptr @__gxx_personality_v0 {
  %2 = alloca ptr, align 8
  %3 = alloca ptr, align 8
  %4 = alloca i32, align 4
  %5 = alloca ptr, align 8
  %6 = alloca %"class.std::__cxx11::basic_string", align 8
  %7 = alloca i32, align 4
  %8 = alloca ptr, align 8
  %9 = alloca i32, align 4
  %10 = alloca %"class.std::__cxx11::basic_string", align 8
  %11 = alloca i32, align 4
  store ptr %0, ptr %2, align 8
  %12 = load ptr, ptr %2, align 8
  %13 = getelementptr inbounds %"struct.faiss::IndexSplitVectors", ptr %12, i32 0, i32 3
  %14 = call noundef zeroext i1 @_ZNKSt6vectorIPN5faiss5IndexESaIS2_EE5emptyEv(ptr noundef nonnull align 8 dereferenceable(24) %13) #5
  br i1 %14, label %15, label %16

15:                                               ; preds = %1
  br label %125

16:                                               ; preds = %1
  %17 = getelementptr inbounds %"struct.faiss::IndexSplitVectors", ptr %12, i32 0, i32 3
  %18 = call noundef nonnull align 8 dereferenceable(8) ptr @_ZNSt6vectorIPN5faiss5IndexESaIS2_EEixEm(ptr noundef nonnull align 8 dereferenceable(24) %17, i64 noundef 0) #5
  %19 = load ptr, ptr %18, align 8
  store ptr %19, ptr %3, align 8
  %20 = load ptr, ptr %3, align 8
  %21 = getelementptr inbounds %"struct.faiss::Index", ptr %20, i32 0, i32 1
  %22 = load i32, ptr %21, align 8
  %23 = sext i32 %22 to i64
  %24 = getelementptr inbounds %"struct.faiss::IndexSplitVectors", ptr %12, i32 0, i32 4
  store i64 %23, ptr %24, align 8
  %25 = load ptr, ptr %3, align 8
  %26 = getelementptr inbounds %"struct.faiss::Index", ptr %25, i32 0, i32 7
  %27 = load i32, ptr %26, align 4
  %28 = getelementptr inbounds %"struct.faiss::Index", ptr %12, i32 0, i32 7
  store i32 %27, ptr %28, align 4
  %29 = load ptr, ptr %3, align 8
  %30 = getelementptr inbounds %"struct.faiss::Index", ptr %29, i32 0, i32 5
  %31 = load i8, ptr %30, align 1
  %32 = trunc i8 %31 to i1
  %33 = getelementptr inbounds %"struct.faiss::Index", ptr %12, i32 0, i32 5
  %34 = zext i1 %32 to i8
  store i8 %34, ptr %33, align 1
  %35 = load ptr, ptr %3, align 8
  %36 = getelementptr inbounds %"struct.faiss::Index", ptr %35, i32 0, i32 3
  %37 = load i64, ptr %36, align 8
  %38 = getelementptr inbounds %"struct.faiss::Index", ptr %12, i32 0, i32 3
  store i64 %37, ptr %38, align 8
  store i32 1, ptr %4, align 4
  br label %39

39:                                               ; preds = %122, %16
  %40 = load i32, ptr %4, align 4
  %41 = sext i32 %40 to i64
  %42 = getelementptr inbounds %"struct.faiss::IndexSplitVectors", ptr %12, i32 0, i32 3
  %43 = call noundef i64 @_ZNKSt6vectorIPN5faiss5IndexESaIS2_EE4sizeEv(ptr noundef nonnull align 8 dereferenceable(24) %42) #5
  %44 = icmp ult i64 %41, %43
  br i1 %44, label %45, label %125

45:                                               ; preds = %39
  %46 = getelementptr inbounds %"struct.faiss::IndexSplitVectors", ptr %12, i32 0, i32 3
  %47 = load i32, ptr %4, align 4
  %48 = sext i32 %47 to i64
  %49 = call noundef nonnull align 8 dereferenceable(8) ptr @_ZNSt6vectorIPN5faiss5IndexESaIS2_EEixEm(ptr noundef nonnull align 8 dereferenceable(24) %46, i64 noundef %48) #5
  %50 = load ptr, ptr %49, align 8
  store ptr %50, ptr %5, align 8
  br label %51

51:                                               ; preds = %45
  %52 = getelementptr inbounds %"struct.faiss::Index", ptr %12, i32 0, i32 7
  %53 = load i32, ptr %52, align 4
  %54 = load ptr, ptr %5, align 8
  %55 = getelementptr inbounds %"struct.faiss::Index", ptr %54, i32 0, i32 7
  %56 = load i32, ptr %55, align 4
  %57 = icmp eq i32 %53, %56
  br i1 %57, label %81, label %58

58:                                               ; preds = %51
  br label %59

59:                                               ; preds = %58
  call void @_ZNSt7__cxx1112basic_stringIcSt11char_traitsIcESaIcEEC1Ev(ptr noundef nonnull align 8 dereferenceable(32) %6) #5
  %60 = call i32 (ptr, i64, ptr, ...) @snprintf(ptr noundef null, i64 noundef 0, ptr noundef @.str.1, ptr noundef @.str.2) #5
  store i32 %60, ptr %7, align 4
  %61 = load i32, ptr %7, align 4
  %62 = add nsw i32 %61, 1
  %63 = sext i32 %62 to i64
  invoke void @_ZNSt7__cxx1112basic_stringIcSt11char_traitsIcESaIcEE6resizeEm(ptr noundef nonnull align 8 dereferenceable(32) %6, i64 noundef %63)
          to label %64 unwind label %71

64:                                               ; preds = %59
  %65 = invoke noundef nonnull align 1 dereferenceable(1) ptr @_ZNSt7__cxx1112basic_stringIcSt11char_traitsIcESaIcEEixEm(ptr noundef nonnull align 8 dereferenceable(32) %6, i64 noundef 0)
          to label %66 unwind label %71

66:                                               ; preds = %64
  %67 = call noundef i64 @_ZNKSt7__cxx1112basic_stringIcSt11char_traitsIcESaIcEE4sizeEv(ptr noundef nonnull align 8 dereferenceable(32) %6) #5
  %68 = call i32 (ptr, i64, ptr, ...) @snprintf(ptr noundef %65, i64 noundef %67, ptr noundef @.str.1, ptr noundef @.str.2) #5
  %69 = call ptr @__cxa_allocate_exception(i64 40) #5
  invoke void @_ZN5faiss14FaissExceptionC1ERKNSt7__cxx1112basic_stringIcSt11char_traitsIcESaIcEEEPKcSA_i(ptr noundef nonnull align 8 dereferenceable(40) %69, ptr noundef nonnull align 8 dereferenceable(32) %6, ptr noundef @__PRETTY_FUNCTION__._ZN5faiss17IndexSplitVectors21sync_with_sub_indexesEv, ptr noundef @.str.3, i32 noundef 49)
          to label %70 unwind label %75

70:                                               ; preds = %66
  invoke void @__cxa_throw(ptr %69, ptr @_ZTIN5faiss14FaissExceptionE, ptr @_ZN5faiss14FaissExceptionD2Ev) #16
          to label %131 unwind label %71

71:                                               ; preds = %70, %64, %59
  %72 = landingpad { ptr, i32 }
          cleanup
  %73 = extractvalue { ptr, i32 } %72, 0
  store ptr %73, ptr %8, align 8
  %74 = extractvalue { ptr, i32 } %72, 1
  store i32 %74, ptr %9, align 4
  br label %79

75:                                               ; preds = %66
  %76 = landingpad { ptr, i32 }
          cleanup
  %77 = extractvalue { ptr, i32 } %76, 0
  store ptr %77, ptr %8, align 8
  %78 = extractvalue { ptr, i32 } %76, 1
  store i32 %78, ptr %9, align 4
  call void @__cxa_free_exception(ptr %69) #5
  br label %79

79:                                               ; preds = %75, %71
  call void @_ZNSt7__cxx1112basic_stringIcSt11char_traitsIcESaIcEED1Ev(ptr noundef nonnull align 8 dereferenceable(32) %6) #5
  br label %126

80:                                               ; No predecessors!
  br label %81

81:                                               ; preds = %80, %51
  br label %82

82:                                               ; preds = %81
  br label %83

83:                                               ; preds = %82
  %84 = getelementptr inbounds %"struct.faiss::Index", ptr %12, i32 0, i32 3
  %85 = load i64, ptr %84, align 8
  %86 = load ptr, ptr %5, align 8
  %87 = getelementptr inbounds %"struct.faiss::Index", ptr %86, i32 0, i32 3
  %88 = load i64, ptr %87, align 8
  %89 = icmp eq i64 %85, %88
  br i1 %89, label %113, label %90

90:                                               ; preds = %83
  br label %91

91:                                               ; preds = %90
  call void @_ZNSt7__cxx1112basic_stringIcSt11char_traitsIcESaIcEEC1Ev(ptr noundef nonnull align 8 dereferenceable(32) %10) #5
  %92 = call i32 (ptr, i64, ptr, ...) @snprintf(ptr noundef null, i64 noundef 0, ptr noundef @.str.1, ptr noundef @.str.4) #5
  store i32 %92, ptr %11, align 4
  %93 = load i32, ptr %11, align 4
  %94 = add nsw i32 %93, 1
  %95 = sext i32 %94 to i64
  invoke void @_ZNSt7__cxx1112basic_stringIcSt11char_traitsIcESaIcEE6resizeEm(ptr noundef nonnull align 8 dereferenceable(32) %10, i64 noundef %95)
          to label %96 unwind label %103

96:                                               ; preds = %91
  %97 = invoke noundef nonnull align 1 dereferenceable(1) ptr @_ZNSt7__cxx1112basic_stringIcSt11char_traitsIcESaIcEEixEm(ptr noundef nonnull align 8 dereferenceable(32) %10, i64 noundef 0)
          to label %98 unwind label %103

98:                                               ; preds = %96
  %99 = call noundef i64 @_ZNKSt7__cxx1112basic_stringIcSt11char_traitsIcESaIcEE4sizeEv(ptr noundef nonnull align 8 dereferenceable(32) %10) #5
  %100 = call i32 (ptr, i64, ptr, ...) @snprintf(ptr noundef %97, i64 noundef %99, ptr noundef @.str.1, ptr noundef @.str.4) #5
  %101 = call ptr @__cxa_allocate_exception(i64 40) #5
  invoke void @_ZN5faiss14FaissExceptionC1ERKNSt7__cxx1112basic_stringIcSt11char_traitsIcESaIcEEEPKcSA_i(ptr noundef nonnull align 8 dereferenceable(40) %101, ptr noundef nonnull align 8 dereferenceable(32) %10, ptr noundef @__PRETTY_FUNCTION__._ZN5faiss17IndexSplitVectors21sync_with_sub_indexesEv, ptr noundef @.str.3, i32 noundef 50)
          to label %102 unwind label %107

102:                                              ; preds = %98
  invoke void @__cxa_throw(ptr %101, ptr @_ZTIN5faiss14FaissExceptionE, ptr @_ZN5faiss14FaissExceptionD2Ev) #16
          to label %131 unwind label %103

103:                                              ; preds = %102, %96, %91
  %104 = landingpad { ptr, i32 }
          cleanup
  %105 = extractvalue { ptr, i32 } %104, 0
  store ptr %105, ptr %8, align 8
  %106 = extractvalue { ptr, i32 } %104, 1
  store i32 %106, ptr %9, align 4
  br label %111

107:                                              ; preds = %98
  %108 = landingpad { ptr, i32 }
          cleanup
  %109 = extractvalue { ptr, i32 } %108, 0
  store ptr %109, ptr %8, align 8
  %110 = extractvalue { ptr, i32 } %108, 1
  store i32 %110, ptr %9, align 4
  call void @__cxa_free_exception(ptr %101) #5
  br label %111

111:                                              ; preds = %107, %103
  call void @_ZNSt7__cxx1112basic_stringIcSt11char_traitsIcESaIcEED1Ev(ptr noundef nonnull align 8 dereferenceable(32) %10) #5
  br label %126

112:                                              ; No predecessors!
  br label %113

113:                                              ; preds = %112, %83
  br label %114

114:                                              ; preds = %113
  %115 = load ptr, ptr %5, align 8
  %116 = getelementptr inbounds %"struct.faiss::Index", ptr %115, i32 0, i32 1
  %117 = load i32, ptr %116, align 8
  %118 = sext i32 %117 to i64
  %119 = getelementptr inbounds %"struct.faiss::IndexSplitVectors", ptr %12, i32 0, i32 4
  %120 = load i64, ptr %119, align 8
  %121 = add nsw i64 %120, %118
  store i64 %121, ptr %119, align 8
  br label %122

122:                                              ; preds = %114
  %123 = load i32, ptr %4, align 4
  %124 = add nsw i32 %123, 1
  store i32 %124, ptr %4, align 4
  br label %39, !llvm.loop !11

125:                                              ; preds = %39, %15
  ret void

126:                                              ; preds = %111, %79
  %127 = load ptr, ptr %8, align 8
  %128 = load i32, ptr %9, align 4
  %129 = insertvalue { ptr, i32 } poison, ptr %127, 0
  %130 = insertvalue { ptr, i32 } %129, i32 %128, 1
  resume { ptr, i32 } %130

131:                                              ; preds = %102, %70
  unreachable
}