; Function Attrs: mustprogress uwtable
define void @_ZN5faiss17IndexSplitVectors21sync_with_sub_indexesEv(ptr nocapture noundef nonnull align 8 dereferenceable(72) %0) local_unnamed_addr #3 align 2 personality ptr @__gxx_personality_v0 {
  %2 = alloca %"class.std::__cxx11::basic_string", align 8
  %3 = alloca %"class.std::__cxx11::basic_string", align 8
  %4 = getelementptr inbounds i8, ptr %0, i64 40
  %5 = load ptr, ptr %4, align 8
  %6 = getelementptr inbounds i8, ptr %0, i64 48
  %7 = load ptr, ptr %6, align 8
  %8 = icmp eq ptr %5, %7
  br i1 %8, label %.loopexit, label %9

9:                                                ; preds = %1
  %10 = load ptr, ptr %5, align 8
  %11 = getelementptr inbounds i8, ptr %10, i64 8
  %12 = load i32, ptr %11, align 8
  %13 = sext i32 %12 to i64
  %14 = getelementptr inbounds i8, ptr %0, i64 64
  store i64 %13, ptr %14, align 8
  %15 = getelementptr inbounds i8, ptr %10, i64 28
  %16 = load i32, ptr %15, align 4
  %17 = getelementptr inbounds i8, ptr %0, i64 28
  store i32 %16, ptr %17, align 4
  %18 = getelementptr inbounds i8, ptr %10, i64 25
  %19 = load i8, ptr %18, align 1
  %20 = and i8 %19, 1
  %21 = getelementptr inbounds i8, ptr %0, i64 25
  store i8 %20, ptr %21, align 1
  %22 = getelementptr inbounds i8, ptr %10, i64 16
  %23 = load i64, ptr %22, align 8
  %24 = getelementptr inbounds i8, ptr %0, i64 16
  store i64 %23, ptr %24, align 8
  %25 = ptrtoint ptr %7 to i64
  %26 = ptrtoint ptr %5 to i64
  %27 = sub i64 %25, %26
  %28 = ashr exact i64 %27, 3
  %29 = icmp ugt i64 %28, 1
  br i1 %29, label %.lr.ph, label %.loopexit

.lr.ph:                                           ; preds = %9, %70
  %indvars.iv = phi i64 [ %indvars.iv.next, %70 ], [ 1, %9 ]
  %30 = phi i64 [ %74, %70 ], [ %13, %9 ]
  %31 = getelementptr inbounds ptr, ptr %5, i64 %indvars.iv
  %32 = load ptr, ptr %31, align 8
  %33 = getelementptr inbounds i8, ptr %32, i64 28
  %34 = load i32, ptr %33, align 4
  %35 = icmp eq i32 %16, %34
  br i1 %35, label %51, label %36

36:                                               ; preds = %.lr.ph
  call void @_ZNSt7__cxx1112basic_stringIcSt11char_traitsIcESaIcEEC1Ev(ptr noundef nonnull align 8 dereferenceable(32) %2) #16
  %37 = call i32 (ptr, i64, ptr, ...) @snprintf(ptr noundef null, i64 noundef 0, ptr noundef nonnull @.str.1, ptr noundef nonnull @.str.2) #16
  %38 = add nsw i32 %37, 1
  %39 = sext i32 %38 to i64
  invoke void @_ZNSt7__cxx1112basic_stringIcSt11char_traitsIcESaIcEE6resizeEm(ptr noundef nonnull align 8 dereferenceable(32) %2, i64 noundef %39)
          to label %40 unwind label %47

40:                                               ; preds = %36
  %41 = invoke noundef nonnull align 1 dereferenceable(1) ptr @_ZNSt7__cxx1112basic_stringIcSt11char_traitsIcESaIcEEixEm(ptr noundef nonnull align 8 dereferenceable(32) %2, i64 noundef 0)
          to label %42 unwind label %47

42:                                               ; preds = %40
  %43 = call noundef i64 @_ZNKSt7__cxx1112basic_stringIcSt11char_traitsIcESaIcEE4sizeEv(ptr noundef nonnull align 8 dereferenceable(32) %2) #16
  %44 = call i32 (ptr, i64, ptr, ...) @snprintf(ptr noundef nonnull %41, i64 noundef %43, ptr noundef nonnull @.str.1, ptr noundef nonnull @.str.2) #16
  %45 = call ptr @__cxa_allocate_exception(i64 40) #16
  invoke void @_ZN5faiss14FaissExceptionC1ERKNSt7__cxx1112basic_stringIcSt11char_traitsIcESaIcEEEPKcSA_i(ptr noundef nonnull align 8 dereferenceable(40) %45, ptr noundef nonnull align 8 dereferenceable(32) %2, ptr noundef nonnull @__PRETTY_FUNCTION__._ZN5faiss17IndexSplitVectors21sync_with_sub_indexesEv, ptr noundef nonnull @.str.3, i32 noundef 49)
          to label %46 unwind label %49

46:                                               ; preds = %42
  invoke void @__cxa_throw(ptr nonnull %45, ptr nonnull @_ZTIN5faiss14FaissExceptionE, ptr nonnull @_ZN5faiss14FaissExceptionD2Ev) #21
          to label %76 unwind label %47

47:                                               ; preds = %46, %40, %36
  %48 = landingpad { ptr, i32 }
          cleanup
  br label %75

49:                                               ; preds = %42
  %50 = landingpad { ptr, i32 }
          cleanup
  call void @__cxa_free_exception(ptr %45) #16
  br label %75

51:                                               ; preds = %.lr.ph
  %52 = getelementptr inbounds i8, ptr %32, i64 16
  %53 = load i64, ptr %52, align 8
  %54 = icmp eq i64 %23, %53
  br i1 %54, label %70, label %55

55:                                               ; preds = %51
  call void @_ZNSt7__cxx1112basic_stringIcSt11char_traitsIcESaIcEEC1Ev(ptr noundef nonnull align 8 dereferenceable(32) %3) #16
  %56 = call i32 (ptr, i64, ptr, ...) @snprintf(ptr noundef null, i64 noundef 0, ptr noundef nonnull @.str.1, ptr noundef nonnull @.str.4) #16
  %57 = add nsw i32 %56, 1
  %58 = sext i32 %57 to i64
  invoke void @_ZNSt7__cxx1112basic_stringIcSt11char_traitsIcESaIcEE6resizeEm(ptr noundef nonnull align 8 dereferenceable(32) %3, i64 noundef %58)
          to label %59 unwind label %66

59:                                               ; preds = %55
  %60 = invoke noundef nonnull align 1 dereferenceable(1) ptr @_ZNSt7__cxx1112basic_stringIcSt11char_traitsIcESaIcEEixEm(ptr noundef nonnull align 8 dereferenceable(32) %3, i64 noundef 0)
          to label %61 unwind label %66

61:                                               ; preds = %59
  %62 = call noundef i64 @_ZNKSt7__cxx1112basic_stringIcSt11char_traitsIcESaIcEE4sizeEv(ptr noundef nonnull align 8 dereferenceable(32) %3) #16
  %63 = call i32 (ptr, i64, ptr, ...) @snprintf(ptr noundef nonnull %60, i64 noundef %62, ptr noundef nonnull @.str.1, ptr noundef nonnull @.str.4) #16
  %64 = call ptr @__cxa_allocate_exception(i64 40) #16
  invoke void @_ZN5faiss14FaissExceptionC1ERKNSt7__cxx1112basic_stringIcSt11char_traitsIcESaIcEEEPKcSA_i(ptr noundef nonnull align 8 dereferenceable(40) %64, ptr noundef nonnull align 8 dereferenceable(32) %3, ptr noundef nonnull @__PRETTY_FUNCTION__._ZN5faiss17IndexSplitVectors21sync_with_sub_indexesEv, ptr noundef nonnull @.str.3, i32 noundef 50)
          to label %65 unwind label %68

65:                                               ; preds = %61
  invoke void @__cxa_throw(ptr nonnull %64, ptr nonnull @_ZTIN5faiss14FaissExceptionE, ptr nonnull @_ZN5faiss14FaissExceptionD2Ev) #21
          to label %76 unwind label %66

66:                                               ; preds = %65, %59, %55
  %67 = landingpad { ptr, i32 }
          cleanup
  br label %75

68:                                               ; preds = %61
  %69 = landingpad { ptr, i32 }
          cleanup
  call void @__cxa_free_exception(ptr %64) #16
  br label %75

70:                                               ; preds = %51
  %71 = getelementptr inbounds i8, ptr %32, i64 8
  %72 = load i32, ptr %71, align 8
  %73 = sext i32 %72 to i64
  %74 = add nsw i64 %30, %73
  store i64 %74, ptr %14, align 8
  %indvars.iv.next = add nuw i64 %indvars.iv, 1
  %exitcond.not = icmp eq i64 %indvars.iv.next, %28
  br i1 %exitcond.not, label %.loopexit, label %.lr.ph, !llvm.loop !19

.loopexit:                                        ; preds = %70, %9, %1
  ret void

75:                                               ; preds = %66, %68, %47, %49
  %.sink = phi ptr [ %2, %49 ], [ %2, %47 ], [ %3, %68 ], [ %3, %66 ]
  %.pn20.pn = phi { ptr, i32 } [ %50, %49 ], [ %48, %47 ], [ %69, %68 ], [ %67, %66 ]
  call void @_ZNSt7__cxx1112basic_stringIcSt11char_traitsIcESaIcEED1Ev(ptr noundef nonnull align 8 dereferenceable(32) %.sink) #16
  resume { ptr, i32 } %.pn20.pn

76:                                               ; preds = %65, %46
  unreachable
}